target datalayout = "e-m:e-p270:32:32-p271:32:32-p272:64:64-i64:64-i128:128-f80:128-n8:16:32:64-S128"
target triple = "x86_64-pc-linux-gnu"

%"class.std::vector.51" = type { %"struct.std::_Vector_base.52" }
%"struct.std::_Vector_base.52" = type { %"struct.std::_Vector_base<cv::face::FacemarkAAM::Config, std::allocator<cv::face::FacemarkAAM::Config>>::_Vector_impl" }
%"struct.std::_Vector_base<cv::face::FacemarkAAM::Config, std::allocator<cv::face::FacemarkAAM::Config>>::_Vector_impl" = type { %"struct.std::_Vector_base<cv::face::FacemarkAAM::Config, std::allocator<cv::face::FacemarkAAM::Config>>::_Vector_impl_data" }
%"struct.std::_Vector_base<cv::face::FacemarkAAM::Config, std::allocator<cv::face::FacemarkAAM::Config>>::_Vector_impl_data" = type { ptr, ptr, ptr }

; Function Attrs: mustprogress nounwind uwtable
define linkonce_odr hidden void @_ZNSt15__new_allocatorIN2cv4face11FacemarkAAM6ConfigEEC2Ev(ptr noundef nonnull align 1 dereferenceable(1) %0) unnamed_addr #5 comdat align 2 {
  %2 = alloca ptr, align 8
  store ptr %0, ptr %2, align 8
  ret void
}

; Function Attrs: mustprogress nounwind uwtable
define linkonce_odr hidden void @_ZNSt12_Vector_baseIN2cv4face11FacemarkAAM6ConfigESaIS3_EE17_Vector_impl_dataC2Ev(ptr noundef nonnull align 8 dereferenceable(24) %0) unnamed_addr #5 comdat align 2 {
  %2 = alloca ptr, align 8
  store ptr %0, ptr %2, align 8
  %3 = load ptr, ptr %2, align 8
  %4 = getelementptr inbounds %"struct.std::_Vector_base<cv::face::FacemarkAAM::Config, std::allocator<cv::face::FacemarkAAM::Config>>::_Vector_impl_data", ptr %3, i32 0, i32 0
  store ptr null, ptr %4, align 8
  %5 = getelementptr inbounds %"struct.std::_Vector_base<cv::face::FacemarkAAM::Config, std::allocator<cv::face::FacemarkAAM::Config>>::_Vector_impl_data", ptr %3, i32 0, i32 1
  store ptr null, ptr %5, align 8
  %6 = getelementptr inbounds %"struct.std::_Vector_base<cv::face::FacemarkAAM::Config, std::allocator<cv::face::FacemarkAAM::Config>>::_Vector_impl_data", ptr %3, i32 0, i32 2
  store ptr null, ptr %6, align 8
  ret void
}

; Function Attrs: mustprogress nounwind uwtable
define linkonce_odr hidden void @_ZNSaIN2cv4face11FacemarkAAM6ConfigEEC2Ev(ptr noundef nonnull align 1 dereferenceable(1) %0) unnamed_addr #5 comdat align 2 {
  %2 = alloca ptr, align 8
  store ptr %0, ptr %2, align 8
  %3 = load ptr, ptr %2, align 8
  call void @_ZNSt15__new_allocatorIN2cv4face11FacemarkAAM6ConfigEEC2Ev(ptr noundef nonnull align 1 dereferenceable(1) %3) #3
  ret void
}

; Function Attrs: mustprogress nounwind uwtable
define linkonce_odr hidden void @_ZNSt12_Vector_baseIN2cv4face11FacemarkAAM6ConfigESaIS3_EE12_Vector_implC2Ev(ptr noundef nonnull align 8 dereferenceable(24) %0) unnamed_addr #5 comdat align 2 {
  %2 = alloca ptr, align 8
  store ptr %0, ptr %2, align 8
  %3 = load ptr, ptr %2, align 8
  call void @_ZNSaIN2cv4face11FacemarkAAM6ConfigEEC2Ev(ptr noundef nonnull align 1 dereferenceable(1) %3) #3
  call void @_ZNSt12_Vector_baseIN2cv4face11FacemarkAAM6ConfigESaIS3_EE17_Vector_impl_dataC2Ev(ptr noundef nonnull align 8 dereferenceable(24) %3) #3
  ret void
}

; Function Attrs: mustprogress nounwind uwtable
define linkonce_odr hidden void @_ZNSt12_Vector_baseIN2cv4face11FacemarkAAM6ConfigESaIS3_EEC2Ev(ptr noundef nonnull align 8 dereferenceable(24) %0) unnamed_addr #5 comdat align 2 {
  %2 = alloca ptr, align 8
  store ptr %0, ptr %2, align 8
  %3 = load ptr, ptr %2, align 8
  %4 = getelementptr inbounds %"struct.std::_Vector_base.52", ptr %3, i32 0, i32 0
  call void @_ZNSt12_Vector_baseIN2cv4face11FacemarkAAM6ConfigESaIS3_EE12_Vector_implC2Ev(ptr noundef nonnull align 8 dereferenceable(24) %4) #3
  ret void
}

; Function Attrs: mustprogress nounwind uwtable
define linkonce_odr hidden void @_ZNSt6vectorIN2cv4face11FacemarkAAM6ConfigESaIS3_EEC2Ev(ptr noundef nonnull align 8 dereferenceable(24) %0) unnamed_addr #5 comdat align 2 {
  %2 = alloca ptr, align 8
  store ptr %0, ptr %2, align 8
  %3 = load ptr, ptr %2, align 8
  call void @_ZNSt12_Vector_baseIN2cv4face11FacemarkAAM6ConfigESaIS3_EEC2Ev(ptr noundef nonnull align 8 dereferenceable(24) %3) #3
  ret void
}

; Function Attrs: mustprogress uwtable
define hidden noundef zeroext i1 @_ZN2cv4face15FacemarkAAMImpl3fitERKNS_11_InputArrayES4_RKNS_12_OutputArrayE(ptr noundef nonnull align 8 dereferenceable(449) %0, ptr noundef nonnull align 8 dereferenceable(24) %1, ptr noundef nonnull align 8 dereferenceable(24) %2, ptr noundef nonnull align 8 dereferenceable(24) %3) unnamed_addr #4 align 2 personality ptr @__gxx_personality_v0 {
  %5 = alloca ptr, align 8
  %6 = alloca ptr, align 8
  %7 = alloca ptr, align 8
  %8 = alloca ptr, align 8
  %9 = alloca %"class.std::vector.51", align 8
  %10 = alloca ptr, align 8
  %11 = alloca i32, align 4
  store ptr %0, ptr %5, align 8
  store ptr %1, ptr %6, align 8
  store ptr %2, ptr %7, align 8
  store ptr %3, ptr %8, align 8
  %12 = load ptr, ptr %5, align 8
  call void @_ZNSt6vectorIN2cv4face11FacemarkAAM6ConfigESaIS3_EEC2Ev(ptr noundef nonnull align 8 dereferenceable(24) %9) #3
  %13 = load ptr, ptr %6, align 8
  %14 = load ptr, ptr %7, align 8
  %15 = load ptr, ptr %8, align 8
  %16 = load ptr, ptr %12, align 8
  %17 = getelementptr inbounds ptr, ptr %16, i64 15
  %18 = load ptr, ptr %17, align 8
  %19 = invoke noundef zeroext i1 %18(ptr noundef nonnull align 8 dereferenceable(449) %12, ptr noundef nonnull align 8 dereferenceable(24) %13, ptr noundef nonnull align 8 dereferenceable(24) %14, ptr noundef nonnull align 8 dereferenceable(24) %15, ptr noundef nonnull align 8 dereferenceable(24) %9)
          to label %20 unwind label %21

20:                                               ; preds = %4
  call void @_ZNSt6vectorIN2cv4face11FacemarkAAM6ConfigESaIS3_EED2Ev(ptr noundef nonnull align 8 dereferenceable(24) %9) #3
  ret i1 %19

21:                                               ; preds = %4
  %22 = landingpad { ptr, i32 }
          cleanup
  %23 = extractvalue { ptr, i32 } %22, 0
  store ptr %23, ptr %10, align 8
  %24 = extractvalue { ptr, i32 } %22, 1
  store i32 %24, ptr %11, align 4
  call void @_ZNSt6vectorIN2cv4face11FacemarkAAM6ConfigESaIS3_EED2Ev(ptr noundef nonnull align 8 dereferenceable(24) %9) #3
  br label %25

25:                                               ; preds = %21
  %26 = load ptr, ptr %10, align 8
  %27 = load i32, ptr %11, align 4
  %28 = insertvalue { ptr, i32 } poison, ptr %26, 0
  %29 = insertvalue { ptr, i32 } %28, i32 %27, 1
  resume { ptr, i32 } %29
}