; Function Attrs: mustprogress uwtable
define hidden noundef zeroext i1 @_ZN2cv4face15FacemarkAAMImpl3fitERKNS_11_InputArrayES4_RKNS_12_OutputArrayE(ptr noundef nonnull align 8 dereferenceable(449) %0, ptr noundef nonnull align 8 dereferenceable(24) %1, ptr noundef nonnull align 8 dereferenceable(24) %2, ptr noundef nonnull align 8 dereferenceable(24) %3) unnamed_addr #3 align 2 personality ptr @__gxx_personality_v0 {
  %5 = alloca %"class.std::vector.51", align 8
  call void @llvm.memset.p0.i64(ptr noundef nonnull align 8 dereferenceable(24) %5, i8 0, i64 24, i1 false)
  %6 = load ptr, ptr %0, align 8
  %7 = getelementptr inbounds i8, ptr %6, i64 120
  %8 = load ptr, ptr %7, align 8
  %9 = invoke noundef zeroext i1 %8(ptr noundef nonnull align 8 dereferenceable(449) %0, ptr noundef nonnull align 8 dereferenceable(24) %1, ptr noundef nonnull align 8 dereferenceable(24) %2, ptr noundef nonnull align 8 dereferenceable(24) %3, ptr noundef nonnull align 8 dereferenceable(24) %5)
          to label %10 unwind label %17

10:                                               ; preds = %4
  %11 = load ptr, ptr %5, align 8
  %12 = getelementptr inbounds i8, ptr %5, i64 8
  %13 = load ptr, ptr %12, align 8
  %.not4.i.i.i.i = icmp eq ptr %11, %13
  br i1 %.not4.i.i.i.i, label %_ZSt8_DestroyIPN2cv4face11FacemarkAAM6ConfigES3_EvT_S5_RSaIT0_E.exit.i, label %.lr.ph.i.i.i.i

.lr.ph.i.i.i.i:                                   ; preds = %10, %.lr.ph.i.i.i.i
  %.05.i.i.i.i = phi ptr [ %14, %.lr.ph.i.i.i.i ], [ %11, %10 ]
  call void @_ZN2cv3MatD1Ev(ptr noundef nonnull align 8 dereferenceable(96) %.05.i.i.i.i) #22
  %14 = getelementptr inbounds i8, ptr %.05.i.i.i.i, i64 112
  %.not.i.i.i.i = icmp eq ptr %14, %13
  br i1 %.not.i.i.i.i, label %_ZSt8_DestroyIPN2cv4face11FacemarkAAM6ConfigES3_EvT_S5_RSaIT0_E.exitthread-pre-split.i, label %.lr.ph.i.i.i.i, !llvm.loop !303

_ZSt8_DestroyIPN2cv4face11FacemarkAAM6ConfigES3_EvT_S5_RSaIT0_E.exitthread-pre-split.i: ; preds = %.lr.ph.i.i.i.i
  %.pr.i = load ptr, ptr %5, align 8
  br label %_ZSt8_DestroyIPN2cv4face11FacemarkAAM6ConfigES3_EvT_S5_RSaIT0_E.exit.i

_ZSt8_DestroyIPN2cv4face11FacemarkAAM6ConfigES3_EvT_S5_RSaIT0_E.exit.i: ; preds = %_ZSt8_DestroyIPN2cv4face11FacemarkAAM6ConfigES3_EvT_S5_RSaIT0_E.exitthread-pre-split.i, %10
  %15 = phi ptr [ %.pr.i, %_ZSt8_DestroyIPN2cv4face11FacemarkAAM6ConfigES3_EvT_S5_RSaIT0_E.exitthread-pre-split.i ], [ %11, %10 ]
  %.not.i.i.i = icmp eq ptr %15, null
  br i1 %.not.i.i.i, label %_ZNSt6vectorIN2cv4face11FacemarkAAM6ConfigESaIS3_EED2Ev.exit, label %16

16:                                               ; preds = %_ZSt8_DestroyIPN2cv4face11FacemarkAAM6ConfigES3_EvT_S5_RSaIT0_E.exit.i
  call void @_ZdlPv(ptr noundef nonnull %15) #25
  br label %_ZNSt6vectorIN2cv4face11FacemarkAAM6ConfigESaIS3_EED2Ev.exit

_ZNSt6vectorIN2cv4face11FacemarkAAM6ConfigESaIS3_EED2Ev.exit: ; preds = %_ZSt8_DestroyIPN2cv4face11FacemarkAAM6ConfigES3_EvT_S5_RSaIT0_E.exit.i, %16
  ret i1 %9

17:                                               ; preds = %4
  %18 = landingpad { ptr, i32 }
          cleanup
  call void @_ZNSt6vectorIN2cv4face11FacemarkAAM6ConfigESaIS3_EED2Ev(ptr noundef nonnull align 8 dereferenceable(24) %5) #22
  resume { ptr, i32 } %18
}